; Function Attrs: mustprogress uwtable
define hidden void @_ZN4lean13mk_llnf_reuseEjjjb(ptr dead_on_unwind noalias writable sret(%"class.lean::expr") align 8 %0, i32 noundef %1, i32 noundef %2, i32 noundef %3, i1 noundef zeroext %4) local_unnamed_addr #0 personality ptr @__gxx_personality_v0 {
  %6 = alloca %"class.lean::list_ref.61", align 8
  %7 = alloca %"class.lean::name", align 8
  %8 = alloca %"class.lean::name", align 8
  %9 = alloca %"class.lean::name", align 8
  %10 = alloca %"class.lean::name", align 8
  call void @llvm.lifetime.start.p0(i64 8, ptr nonnull %7) #19
  call void @llvm.lifetime.start.p0(i64 8, ptr nonnull %8) #19
  call void @llvm.lifetime.start.p0(i64 8, ptr nonnull %9) #19
  call void @llvm.lifetime.start.p0(i64 8, ptr nonnull %10) #19
  %11 = load ptr, ptr @_ZN4leanL7g_reuseE, align 8, !tbaa !19
  call void @_ZN4lean4nameC1ERKS0_j(ptr noundef nonnull align 8 dereferenceable(8) %10, ptr noundef nonnull align 8 dereferenceable(8) %11, i32 noundef %1)
  invoke void @_ZN4lean4nameC1ERKS0_j(ptr noundef nonnull align 8 dereferenceable(8) %9, ptr noundef nonnull align 8 dereferenceable(8) %10, i32 noundef %2)
          to label %12 unwind label %83

12:                                               ; preds = %5
  invoke void @_ZN4lean4nameC1ERKS0_j(ptr noundef nonnull align 8 dereferenceable(8) %8, ptr noundef nonnull align 8 dereferenceable(8) %9, i32 noundef %3)
          to label %13 unwind label %85

13:                                               ; preds = %12
  %14 = zext i1 %4 to i32
  invoke void @_ZN4lean4nameC1ERKS0_j(ptr noundef nonnull align 8 dereferenceable(8) %7, ptr noundef nonnull align 8 dereferenceable(8) %8, i32 noundef %14)
          to label %15 unwind label %87

15:                                               ; preds = %13
  call void @llvm.lifetime.start.p0(i64 8, ptr nonnull %6) #19, !noalias !21
  store ptr inttoptr (i64 1 to ptr), ptr %6, align 8, !tbaa !8, !noalias !21
  invoke void @_ZN4lean8mk_constERKNS_4nameERKNS_8list_refINS_5levelEEE(ptr dead_on_unwind writable sret(%"class.lean::expr") align 8 %0, ptr noundef nonnull align 8 dereferenceable(8) %7, ptr noundef nonnull align 8 dereferenceable(8) %6)
          to label %_ZN4lean11mk_constantERKNS_4nameERKNS_8list_refINS_5levelEEE.exit.i unwind label %.body

_ZN4lean11mk_constantERKNS_4nameERKNS_8list_refINS_5levelEEE.exit.i: ; preds = %15
  %16 = load ptr, ptr %6, align 8, !tbaa !8, !noalias !21
  %17 = ptrtoint ptr %16 to i64
  %18 = and i64 %17, 1
  %.not.i.i.i = icmp eq i64 %18, 0
  br i1 %.not.i.i.i, label %19, label %30

19:                                               ; preds = %_ZN4lean11mk_constantERKNS_4nameERKNS_8list_refINS_5levelEEE.exit.i
  %20 = load i32, ptr %16, align 4, !tbaa !10
  %21 = icmp sgt i32 %20, 1
  br i1 %21, label %22, label %24, !prof !13

22:                                               ; preds = %19
  %23 = add nsw i32 %20, -1
  store i32 %23, ptr %16, align 4, !tbaa !10
  br label %30

24:                                               ; preds = %19
  %.not.i.i.i.i = icmp eq i32 %20, 0
  br i1 %.not.i.i.i.i, label %30, label %25

25:                                               ; preds = %24
  invoke void @lean_dec_ref_cold(ptr noundef nonnull %16)
          to label %30 unwind label %26

26:                                               ; preds = %25
  %27 = landingpad { ptr, i32 }
          catch ptr null
  %28 = extractvalue { ptr, i32 } %27, 0
  call void @__clang_call_terminate(ptr %28) #20
  unreachable

.body:                                            ; preds = %15
  %29 = landingpad { ptr, i32 }
          cleanup
  call void @_ZN4lean10object_refD2Ev(ptr noundef nonnull align 8 dereferenceable(8) %6) #19
  call void @llvm.lifetime.end.p0(i64 8, ptr nonnull %6) #19, !noalias !21
  call void @_ZN4lean10object_refD2Ev(ptr noundef nonnull align 8 dereferenceable(8) %7) #19
  br label %89

30:                                               ; preds = %25, %24, %22, %_ZN4lean11mk_constantERKNS_4nameERKNS_8list_refINS_5levelEEE.exit.i
  call void @llvm.lifetime.end.p0(i64 8, ptr nonnull %6) #19, !noalias !21
  %31 = load ptr, ptr %7, align 8, !tbaa !8
  %32 = ptrtoint ptr %31 to i64
  %33 = and i64 %32, 1
  %.not.i.i = icmp eq i64 %33, 0
  br i1 %.not.i.i, label %34, label %_ZN4lean10object_refD2Ev.exit

34:                                               ; preds = %30
  %35 = load i32, ptr %31, align 4, !tbaa !10
  %36 = icmp sgt i32 %35, 1
  br i1 %36, label %37, label %39, !prof !13

37:                                               ; preds = %34
  %38 = add nsw i32 %35, -1
  store i32 %38, ptr %31, align 4, !tbaa !10
  br label %_ZN4lean10object_refD2Ev.exit

39:                                               ; preds = %34
  %.not.i.i.i11 = icmp eq i32 %35, 0
  br i1 %.not.i.i.i11, label %_ZN4lean10object_refD2Ev.exit, label %40

40:                                               ; preds = %39
  invoke void @lean_dec_ref_cold(ptr noundef nonnull %31)
          to label %_ZN4lean10object_refD2Ev.exit unwind label %41

41:                                               ; preds = %40
  %42 = landingpad { ptr, i32 }
          catch ptr null
  %43 = extractvalue { ptr, i32 } %42, 0
  call void @__clang_call_terminate(ptr %43) #20
  unreachable

_ZN4lean10object_refD2Ev.exit:                    ; preds = %30, %37, %39, %40
  %44 = load ptr, ptr %8, align 8, !tbaa !8
  %45 = ptrtoint ptr %44 to i64
  %46 = and i64 %45, 1
  %.not.i.i12 = icmp eq i64 %46, 0
  br i1 %.not.i.i12, label %47, label %_ZN4lean10object_refD2Ev.exit14

47:                                               ; preds = %_ZN4lean10object_refD2Ev.exit
  %48 = load i32, ptr %44, align 4, !tbaa !10
  %49 = icmp sgt i32 %48, 1
  br i1 %49, label %50, label %52, !prof !13

50:                                               ; preds = %47
  %51 = add nsw i32 %48, -1
  store i32 %51, ptr %44, align 4, !tbaa !10
  br label %_ZN4lean10object_refD2Ev.exit14

52:                                               ; preds = %47
  %.not.i.i.i13 = icmp eq i32 %48, 0
  br i1 %.not.i.i.i13, label %_ZN4lean10object_refD2Ev.exit14, label %53

53:                                               ; preds = %52
  invoke void @lean_dec_ref_cold(ptr noundef nonnull %44)
          to label %_ZN4lean10object_refD2Ev.exit14 unwind label %54

54:                                               ; preds = %53
  %55 = landingpad { ptr, i32 }
          catch ptr null
  %56 = extractvalue { ptr, i32 } %55, 0
  call void @__clang_call_terminate(ptr %56) #20
  unreachable

_ZN4lean10object_refD2Ev.exit14:                  ; preds = %_ZN4lean10object_refD2Ev.exit, %50, %52, %53
  %57 = load ptr, ptr %9, align 8, !tbaa !8
  %58 = ptrtoint ptr %57 to i64
  %59 = and i64 %58, 1
  %.not.i.i15 = icmp eq i64 %59, 0
  br i1 %.not.i.i15, label %60, label %_ZN4lean10object_refD2Ev.exit17

60:                                               ; preds = %_ZN4lean10object_refD2Ev.exit14
  %61 = load i32, ptr %57, align 4, !tbaa !10
  %62 = icmp sgt i32 %61, 1
  br i1 %62, label %63, label %65, !prof !13

63:                                               ; preds = %60
  %64 = add nsw i32 %61, -1
  store i32 %64, ptr %57, align 4, !tbaa !10
  br label %_ZN4lean10object_refD2Ev.exit17

65:                                               ; preds = %60
  %.not.i.i.i16 = icmp eq i32 %61, 0
  br i1 %.not.i.i.i16, label %_ZN4lean10object_refD2Ev.exit17, label %66

66:                                               ; preds = %65
  invoke void @lean_dec_ref_cold(ptr noundef nonnull %57)
          to label %_ZN4lean10object_refD2Ev.exit17 unwind label %67

67:                                               ; preds = %66
  %68 = landingpad { ptr, i32 }
          catch ptr null
  %69 = extractvalue { ptr, i32 } %68, 0
  call void @__clang_call_terminate(ptr %69) #20
  unreachable

_ZN4lean10object_refD2Ev.exit17:                  ; preds = %_ZN4lean10object_refD2Ev.exit14, %63, %65, %66
  %70 = load ptr, ptr %10, align 8, !tbaa !8
  %71 = ptrtoint ptr %70 to i64
  %72 = and i64 %71, 1
  %.not.i.i18 = icmp eq i64 %72, 0
  br i1 %.not.i.i18, label %73, label %_ZN4lean10object_refD2Ev.exit20

73:                                               ; preds = %_ZN4lean10object_refD2Ev.exit17
  %74 = load i32, ptr %70, align 4, !tbaa !10
  %75 = icmp sgt i32 %74, 1
  br i1 %75, label %76, label %78, !prof !13

76:                                               ; preds = %73
  %77 = add nsw i32 %74, -1
  store i32 %77, ptr %70, align 4, !tbaa !10
  br label %_ZN4lean10object_refD2Ev.exit20

78:                                               ; preds = %73
  %.not.i.i.i19 = icmp eq i32 %74, 0
  br i1 %.not.i.i.i19, label %_ZN4lean10object_refD2Ev.exit20, label %79

79:                                               ; preds = %78
  invoke void @lean_dec_ref_cold(ptr noundef nonnull %70)
          to label %_ZN4lean10object_refD2Ev.exit20 unwind label %80

80:                                               ; preds = %79
  %81 = landingpad { ptr, i32 }
          catch ptr null
  %82 = extractvalue { ptr, i32 } %81, 0
  call void @__clang_call_terminate(ptr %82) #20
  unreachable

_ZN4lean10object_refD2Ev.exit20:                  ; preds = %_ZN4lean10object_refD2Ev.exit17, %76, %78, %79
  call void @llvm.lifetime.end.p0(i64 8, ptr nonnull %10) #19
  call void @llvm.lifetime.end.p0(i64 8, ptr nonnull %9) #19
  call void @llvm.lifetime.end.p0(i64 8, ptr nonnull %8) #19
  call void @llvm.lifetime.end.p0(i64 8, ptr nonnull %7) #19
  ret void

83:                                               ; preds = %5
  %84 = landingpad { ptr, i32 }
          cleanup
  br label %91

85:                                               ; preds = %12
  %86 = landingpad { ptr, i32 }
          cleanup
  br label %90

87:                                               ; preds = %13
  %88 = landingpad { ptr, i32 }
          cleanup
  br label %89

89:                                               ; preds = %.body, %87
  %.pn = phi { ptr, i32 } [ %29, %.body ], [ %88, %87 ]
  call void @_ZN4lean10object_refD2Ev(ptr noundef nonnull align 8 dereferenceable(8) %8) #19
  br label %90

90:                                               ; preds = %89, %85
  %.pn.pn = phi { ptr, i32 } [ %.pn, %89 ], [ %86, %85 ]
  call void @_ZN4lean10object_refD2Ev(ptr noundef nonnull align 8 dereferenceable(8) %9) #19
  br label %91

91:                                               ; preds = %90, %83
  %.pn.pn.pn = phi { ptr, i32 } [ %.pn.pn, %90 ], [ %84, %83 ]
  call void @_ZN4lean10object_refD2Ev(ptr noundef nonnull align 8 dereferenceable(8) %10) #19
  call void @llvm.lifetime.end.p0(i64 8, ptr nonnull %10) #19
  call void @llvm.lifetime.end.p0(i64 8, ptr nonnull %9) #19
  call void @llvm.lifetime.end.p0(i64 8, ptr nonnull %8) #19
  call void @llvm.lifetime.end.p0(i64 8, ptr nonnull %7) #19
  resume { ptr, i32 } %.pn.pn.pn
}